target datalayout = "e-m:e-p270:32:32-p271:32:32-p272:64:64-i64:64-i128:128-f80:128-n8:16:32:64-S128"
target triple = "x86_64-pc-linux-gnu"

%struct.aclSelector = type { i32, [16 x i64], ptr, ptr, ptr, ptr }
%struct.sdshdr8 = type { i8, i8, i8, [0 x i8] }
%struct.sdshdr16 = type <{ i16, i16, i8, [0 x i8] }>
%struct.sdshdr32 = type <{ i32, i32, i8, [0 x i8] }>
%struct.sdshdr64 = type <{ i64, i64, i8, [0 x i8] }>

; Function Attrs: inlinehint nounwind uwtable
define internal i64 @sdslen(ptr noundef %0) #11 {
  %2 = alloca i64, align 8
  %3 = alloca ptr, align 8
  %4 = alloca i8, align 1
  %5 = alloca i32, align 4
  store ptr %0, ptr %3, align 8, !tbaa !5
  call void @llvm.lifetime.start.p0(i64 1, ptr %4) #14
  %6 = load ptr, ptr %3, align 8, !tbaa !5
  %7 = getelementptr inbounds i8, ptr %6, i64 -1
  %8 = load i8, ptr %7, align 1, !tbaa !22
  store i8 %8, ptr %4, align 1, !tbaa !22
  %9 = load i8, ptr %4, align 1, !tbaa !22
  %10 = zext i8 %9 to i32
  %11 = and i32 %10, 7
  switch i32 %11, label %40 [
    i32 0, label %12
    i32 1, label %17
    i32 2, label %23
    i32 3, label %29
    i32 4, label %35
  ]

12:                                               ; preds = %1
  %13 = load i8, ptr %4, align 1, !tbaa !22
  %14 = zext i8 %13 to i32
  %15 = ashr i32 %14, 3
  %16 = sext i32 %15 to i64
  store i64 %16, ptr %2, align 8
  store i32 1, ptr %5, align 4
  br label %41

17:                                               ; preds = %1
  %18 = load ptr, ptr %3, align 8, !tbaa !5
  %19 = getelementptr inbounds i8, ptr %18, i64 -3
  %20 = getelementptr inbounds nuw %struct.sdshdr8, ptr %19, i32 0, i32 0
  %21 = load i8, ptr %20, align 1, !tbaa !22
  %22 = zext i8 %21 to i64
  store i64 %22, ptr %2, align 8
  store i32 1, ptr %5, align 4
  br label %41

23:                                               ; preds = %1
  %24 = load ptr, ptr %3, align 8, !tbaa !5
  %25 = getelementptr inbounds i8, ptr %24, i64 -5
  %26 = getelementptr inbounds nuw %struct.sdshdr16, ptr %25, i32 0, i32 0
  %27 = load i16, ptr %26, align 1, !tbaa !28
  %28 = zext i16 %27 to i64
  store i64 %28, ptr %2, align 8
  store i32 1, ptr %5, align 4
  br label %41

29:                                               ; preds = %1
  %30 = load ptr, ptr %3, align 8, !tbaa !5
  %31 = getelementptr inbounds i8, ptr %30, i64 -9
  %32 = getelementptr inbounds nuw %struct.sdshdr32, ptr %31, i32 0, i32 0
  %33 = load i32, ptr %32, align 1, !tbaa !17
  %34 = zext i32 %33 to i64
  store i64 %34, ptr %2, align 8
  store i32 1, ptr %5, align 4
  br label %41

35:                                               ; preds = %1
  %36 = load ptr, ptr %3, align 8, !tbaa !5
  %37 = getelementptr inbounds i8, ptr %36, i64 -17
  %38 = getelementptr inbounds nuw %struct.sdshdr64, ptr %37, i32 0, i32 0
  %39 = load i64, ptr %38, align 1, !tbaa !10
  store i64 %39, ptr %2, align 8
  store i32 1, ptr %5, align 4
  br label %41

40:                                               ; preds = %1
  store i64 0, ptr %2, align 8
  store i32 1, ptr %5, align 4
  br label %41

41:                                               ; preds = %40, %35, %29, %23, %17, %12
  call void @llvm.lifetime.end.p0(i64 1, ptr %4) #14
  %42 = load i64, ptr %2, align 8
  ret i64 %42
}

; Function Attrs: nounwind uwtable
define dso_local void @ACLSelectorRemoveCommandRule(ptr noundef %0, ptr noundef %1) #0 {
  %3 = alloca ptr, align 8
  %4 = alloca ptr, align 8
  %5 = alloca i64, align 8
  %6 = alloca ptr, align 8
  %7 = alloca ptr, align 8
  %8 = alloca ptr, align 8
  %9 = alloca ptr, align 8
  %10 = alloca i64, align 8
  %11 = alloca i32, align 4
  store ptr %0, ptr %3, align 8, !tbaa !32
  store ptr %1, ptr %4, align 8, !tbaa !5
  call void @llvm.lifetime.start.p0(i64 8, ptr %5) #14
  %12 = load ptr, ptr %4, align 8, !tbaa !5
  %13 = call i64 @sdslen(ptr noundef %12)
  store i64 %13, ptr %5, align 8, !tbaa !10
  call void @llvm.lifetime.start.p0(i64 8, ptr %6) #14
  %14 = load ptr, ptr %3, align 8, !tbaa !32
  %15 = getelementptr inbounds nuw %struct.aclSelector, ptr %14, i32 0, i32 5
  %16 = load ptr, ptr %15, align 8, !tbaa !70
  store ptr %16, ptr %6, align 8, !tbaa !5
  br label %17

17:                                               ; preds = %99, %97, %2
  %18 = load ptr, ptr %6, align 8, !tbaa !5
  %19 = getelementptr inbounds i8, ptr %18, i64 0
  %20 = load i8, ptr %19, align 1, !tbaa !22
  %21 = icmp ne i8 %20, 0
  br i1 %21, label %22, label %100

22:                                               ; preds = %17
  call void @llvm.lifetime.start.p0(i64 8, ptr %7) #14
  %23 = load ptr, ptr %6, align 8, !tbaa !5
  store ptr %23, ptr %7, align 8, !tbaa !5
  %24 = load ptr, ptr %6, align 8, !tbaa !5
  %25 = getelementptr inbounds i8, ptr %24, i64 1
  store ptr %25, ptr %6, align 8, !tbaa !5
  call void @llvm.lifetime.start.p0(i64 8, ptr %8) #14
  %26 = load ptr, ptr %6, align 8, !tbaa !5
  %27 = call ptr @strchr(ptr noundef %26, i32 noundef 32) #17
  store ptr %27, ptr %8, align 8, !tbaa !5
  %28 = load ptr, ptr %8, align 8, !tbaa !5
  %29 = icmp ne ptr %28, null
  br i1 %29, label %44, label %30

30:                                               ; preds = %22
  %31 = load ptr, ptr %6, align 8, !tbaa !5
  %32 = load ptr, ptr %6, align 8, !tbaa !5
  %33 = call i64 @strlen(ptr noundef %32) #17
  %34 = getelementptr inbounds nuw i8, ptr %31, i64 %33
  store ptr %34, ptr %8, align 8, !tbaa !5
  %35 = load ptr, ptr %7, align 8, !tbaa !5
  %36 = load ptr, ptr %3, align 8, !tbaa !32
  %37 = getelementptr inbounds nuw %struct.aclSelector, ptr %36, i32 0, i32 5
  %38 = load ptr, ptr %37, align 8, !tbaa !70
  %39 = icmp ne ptr %35, %38
  br i1 %39, label %40, label %43

40:                                               ; preds = %30
  %41 = load ptr, ptr %7, align 8, !tbaa !5
  %42 = getelementptr inbounds i8, ptr %41, i64 -1
  store ptr %42, ptr %7, align 8, !tbaa !5
  br label %43

43:                                               ; preds = %40, %30
  br label %44

44:                                               ; preds = %43, %22
  call void @llvm.lifetime.start.p0(i64 8, ptr %9) #14
  %45 = load ptr, ptr %8, align 8, !tbaa !5
  store ptr %45, ptr %9, align 8, !tbaa !5
  %46 = load ptr, ptr %9, align 8, !tbaa !5
  %47 = load i8, ptr %46, align 1, !tbaa !22
  %48 = sext i8 %47 to i32
  %49 = icmp eq i32 %48, 32
  br i1 %49, label %50, label %53

50:                                               ; preds = %44
  %51 = load ptr, ptr %9, align 8, !tbaa !5
  %52 = getelementptr inbounds nuw i8, ptr %51, i32 1
  store ptr %52, ptr %9, align 8, !tbaa !5
  br label %53

53:                                               ; preds = %50, %44
  call void @llvm.lifetime.start.p0(i64 8, ptr %10) #14
  %54 = load ptr, ptr %8, align 8, !tbaa !5
  %55 = load ptr, ptr %6, align 8, !tbaa !5
  %56 = ptrtoint ptr %54 to i64
  %57 = ptrtoint ptr %55 to i64
  %58 = sub i64 %56, %57
  store i64 %58, ptr %10, align 8, !tbaa !10
  %59 = load ptr, ptr %6, align 8, !tbaa !5
  %60 = load ptr, ptr %4, align 8, !tbaa !5
  %61 = load i64, ptr %10, align 8, !tbaa !10
  %62 = load i64, ptr %5, align 8, !tbaa !10
  %63 = icmp ult i64 %61, %62
  br i1 %63, label %64, label %66

64:                                               ; preds = %53
  %65 = load i64, ptr %10, align 8, !tbaa !10
  br label %68

66:                                               ; preds = %53
  %67 = load i64, ptr %5, align 8, !tbaa !10
  br label %68

68:                                               ; preds = %66, %64
  %69 = phi i64 [ %65, %64 ], [ %67, %66 ]
  %70 = call i32 @memcmp(ptr noundef %59, ptr noundef %60, i64 noundef %69) #17
  %71 = icmp ne i32 %70, 0
  br i1 %71, label %95, label %72

72:                                               ; preds = %68
  %73 = load i64, ptr %10, align 8, !tbaa !10
  %74 = load i64, ptr %5, align 8, !tbaa !10
  %75 = icmp eq i64 %73, %74
  br i1 %75, label %87, label %76

76:                                               ; preds = %72
  %77 = load i64, ptr %10, align 8, !tbaa !10
  %78 = load i64, ptr %5, align 8, !tbaa !10
  %79 = icmp ugt i64 %77, %78
  br i1 %79, label %80, label %94

80:                                               ; preds = %76
  %81 = load ptr, ptr %6, align 8, !tbaa !5
  %82 = load i64, ptr %5, align 8, !tbaa !10
  %83 = getelementptr inbounds nuw i8, ptr %81, i64 %82
  %84 = load i8, ptr %83, align 1, !tbaa !22
  %85 = sext i8 %84 to i32
  %86 = icmp eq i32 %85, 124
  br i1 %86, label %87, label %94

87:                                               ; preds = %80, %72
  %88 = load ptr, ptr %7, align 8, !tbaa !5
  %89 = load ptr, ptr %9, align 8, !tbaa !5
  %90 = load ptr, ptr %9, align 8, !tbaa !5
  %91 = call i64 @strlen(ptr noundef %90) #17
  %92 = add i64 %91, 1
  call void @llvm.memmove.p0.p0.i64(ptr align 1 %88, ptr align 1 %89, i64 %92, i1 false)
  %93 = load ptr, ptr %7, align 8, !tbaa !5
  store ptr %93, ptr %6, align 8, !tbaa !5
  store i32 2, ptr %11, align 4
  br label %97, !llvm.loop !107

94:                                               ; preds = %80, %76
  br label %95

95:                                               ; preds = %94, %68
  %96 = load ptr, ptr %9, align 8, !tbaa !5
  store ptr %96, ptr %6, align 8, !tbaa !5
  store i32 0, ptr %11, align 4
  br label %97

97:                                               ; preds = %95, %87
  call void @llvm.lifetime.end.p0(i64 8, ptr %10) #14
  call void @llvm.lifetime.end.p0(i64 8, ptr %9) #14
  call void @llvm.lifetime.end.p0(i64 8, ptr %8) #14
  call void @llvm.lifetime.end.p0(i64 8, ptr %7) #14
  %98 = load i32, ptr %11, align 4
  switch i32 %98, label %104 [
    i32 0, label %99
    i32 2, label %17
  ]

99:                                               ; preds = %97
  br label %17, !llvm.loop !107

100:                                              ; preds = %17
  %101 = load ptr, ptr %3, align 8, !tbaa !32
  %102 = getelementptr inbounds nuw %struct.aclSelector, ptr %101, i32 0, i32 5
  %103 = load ptr, ptr %102, align 8, !tbaa !70
  call void @sdsupdatelen(ptr noundef %103)
  call void @llvm.lifetime.end.p0(i64 8, ptr %6) #14
  call void @llvm.lifetime.end.p0(i64 8, ptr %5) #14
  ret void

104:                                              ; preds = %97
  unreachable
}