; Function Attrs: nounwind uwtable
define dso_local void @ACLSelectorRemoveCommandRule(ptr noundef readonly captures(none) %0, ptr noundef readonly captures(none) %1) local_unnamed_addr #0 {
  %3 = getelementptr inbounds i8, ptr %1, i64 -1
  %4 = load i8, ptr %3, align 1, !tbaa !19
  %5 = zext i8 %4 to i32
  %6 = and i32 %5, 7
  switch i32 %6, label %sdslen.exit [
    i32 0, label %7
    i32 1, label %10
    i32 2, label %14
    i32 3, label %18
    i32 4, label %22
  ]

7:                                                ; preds = %2
  %8 = lshr i32 %5, 3
  %9 = zext nneg i32 %8 to i64
  br label %sdslen.exit

10:                                               ; preds = %2
  %11 = getelementptr inbounds i8, ptr %1, i64 -3
  %12 = load i8, ptr %11, align 1, !tbaa !19
  %13 = zext i8 %12 to i64
  br label %sdslen.exit

14:                                               ; preds = %2
  %15 = getelementptr inbounds i8, ptr %1, i64 -5
  %16 = load i16, ptr %15, align 1, !tbaa !26
  %17 = zext i16 %16 to i64
  br label %sdslen.exit

18:                                               ; preds = %2
  %19 = getelementptr inbounds i8, ptr %1, i64 -9
  %20 = load i32, ptr %19, align 1, !tbaa !102
  %21 = zext i32 %20 to i64
  br label %sdslen.exit

22:                                               ; preds = %2
  %23 = getelementptr inbounds i8, ptr %1, i64 -17
  %24 = load i64, ptr %23, align 1, !tbaa !5
  br label %sdslen.exit

sdslen.exit:                                      ; preds = %2, %7, %10, %14, %18, %22
  %.0.i = phi i64 [ %24, %22 ], [ %21, %18 ], [ %17, %14 ], [ %13, %10 ], [ %9, %7 ], [ 0, %2 ]
  %25 = getelementptr inbounds nuw i8, ptr %0, i64 160
  %26 = load ptr, ptr %25, align 8, !tbaa !67
  %27 = load i8, ptr %26, align 1, !tbaa !19
  %.not44 = icmp eq i8 %27, 0
  br i1 %.not44, label %._crit_edge, label %.lr.ph

.lr.ph:                                           ; preds = %sdslen.exit, %52
  %.045 = phi ptr [ %.1, %52 ], [ %26, %sdslen.exit ]
  %28 = getelementptr inbounds nuw i8, ptr %.045, i64 1
  %29 = tail call ptr @strchr(ptr noundef nonnull dereferenceable(1) %28, i32 noundef 32) #29
  %.not40 = icmp eq ptr %29, null
  br i1 %.not40, label %30, label %34

30:                                               ; preds = %.lr.ph
  %31 = tail call i64 @strlen(ptr noundef nonnull dereferenceable(1) %28) #29
  %32 = getelementptr inbounds nuw i8, ptr %28, i64 %31
  %33 = load ptr, ptr %25, align 8, !tbaa !67
  %.not41 = icmp ne ptr %.045, %33
  %spec.select.idx = sext i1 %.not41 to i64
  %spec.select = getelementptr inbounds i8, ptr %.045, i64 %spec.select.idx
  br label %34

34:                                               ; preds = %30, %.lr.ph
  %.036 = phi ptr [ %.045, %.lr.ph ], [ %spec.select, %30 ]
  %.035 = phi ptr [ %29, %.lr.ph ], [ %32, %30 ]
  %35 = load i8, ptr %.035, align 1, !tbaa !19
  %36 = icmp eq i8 %35, 32
  %spec.select43.idx = zext i1 %36 to i64
  %spec.select43 = getelementptr inbounds nuw i8, ptr %.035, i64 %spec.select43.idx
  %37 = ptrtoint ptr %.035 to i64
  %38 = ptrtoint ptr %28 to i64
  %39 = sub i64 %37, %38
  %40 = tail call i64 @llvm.umin.i64(i64 %39, i64 %.0.i)
  %bcmp = tail call i32 @bcmp(ptr nonnull %28, ptr %1, i64 %40)
  %.not42 = icmp eq i32 %bcmp, 0
  br i1 %.not42, label %41, label %52

41:                                               ; preds = %34
  %42 = icmp eq i64 %39, %.0.i
  br i1 %42, label %49, label %43

43:                                               ; preds = %41
  %44 = icmp ugt i64 %39, %.0.i
  br i1 %44, label %45, label %52

45:                                               ; preds = %43
  %46 = getelementptr inbounds nuw i8, ptr %28, i64 %.0.i
  %47 = load i8, ptr %46, align 1, !tbaa !19
  %48 = icmp eq i8 %47, 124
  br i1 %48, label %49, label %52

49:                                               ; preds = %45, %41
  %50 = tail call i64 @strlen(ptr noundef nonnull dereferenceable(1) %spec.select43) #29
  %51 = add i64 %50, 1
  tail call void @llvm.memmove.p0.p0.i64(ptr nonnull align 1 %.036, ptr nonnull align 1 %spec.select43, i64 %51, i1 false)
  br label %52, !llvm.loop !103

52:                                               ; preds = %34, %45, %43, %49
  %.1 = phi ptr [ %.036, %49 ], [ %spec.select43, %43 ], [ %spec.select43, %45 ], [ %spec.select43, %34 ]
  %53 = load i8, ptr %.1, align 1, !tbaa !19
  %.not = icmp eq i8 %53, 0
  br i1 %.not, label %._crit_edge.loopexit, label %.lr.ph

._crit_edge.loopexit:                             ; preds = %52
  %.pre = load ptr, ptr %25, align 8, !tbaa !67
  br label %._crit_edge

._crit_edge:                                      ; preds = %._crit_edge.loopexit, %sdslen.exit
  %54 = phi ptr [ %.pre, %._crit_edge.loopexit ], [ %26, %sdslen.exit ]
  tail call void @sdsupdatelen(ptr noundef %54) #25
  ret void
}